; Function Attrs: mustprogress uwtable
define dso_local void @_ZNK4pbrt6Sphere6BoundsEv(ptr dead_on_unwind noalias writable sret(%"class.pbrt::Bounds3") align 4 %0, ptr noundef nonnull readonly align 8 captures(none) dereferenceable(42) %1) local_unnamed_addr #2 align 2 {
  %3 = alloca %"class.pbrt::Bounds3", align 8
  %4 = getelementptr inbounds nuw i8, ptr %1, i64 24
  %5 = load ptr, ptr %4, align 8, !tbaa !4
  call void @llvm.lifetime.start.p0(i64 24, ptr nonnull %3) #31
  %6 = load float, ptr %1, align 8, !tbaa !12
  %7 = fneg float %6
  %8 = getelementptr inbounds nuw i8, ptr %1, i64 4
  %9 = load float, ptr %8, align 4, !tbaa !13
  %10 = getelementptr inbounds nuw i8, ptr %1, i64 8
  %11 = load float, ptr %10, align 8, !tbaa !14
  %12 = fcmp olt float %6, 0.000000e+00
  %13 = select i1 %12, float %6, float %7
  %14 = fcmp olt float %11, %9
  %.sroa.speculated.i.i = select i1 %14, float %11, float %9
  %.sroa.015.0.vec.insert.i.i = insertelement <2 x float> poison, float %13, i64 0
  %.sroa.015.4.vec.insert.i.i = shufflevector <2 x float> %.sroa.015.0.vec.insert.i.i, <2 x float> poison, <2 x i32> zeroinitializer
  store <2 x float> %.sroa.015.4.vec.insert.i.i, ptr %3, align 8
  %.sroa.212.0..sroa_idx.i = getelementptr inbounds nuw i8, ptr %3, i64 8
  store float %.sroa.speculated.i.i, ptr %.sroa.212.0..sroa_idx.i, align 8
  %15 = getelementptr inbounds nuw i8, ptr %3, i64 12
  %16 = fcmp ogt float %6, 0.000000e+00
  %17 = select i1 %16, float %6, float %7
  %18 = fcmp olt float %9, %11
  %.sroa.speculated.i34.i = select i1 %18, float %11, float %9
  %.sroa.015.0.vec.insert.i35.i = insertelement <2 x float> poison, float %17, i64 0
  %.sroa.015.4.vec.insert.i36.i = shufflevector <2 x float> %.sroa.015.0.vec.insert.i35.i, <2 x float> poison, <2 x i32> zeroinitializer
  store <2 x float> %.sroa.015.4.vec.insert.i36.i, ptr %15, align 4
  %.sroa.2.0..sroa_idx.i = getelementptr inbounds nuw i8, ptr %3, i64 20
  store float %.sroa.speculated.i34.i, ptr %.sroa.2.0..sroa_idx.i, align 4
  call void @_ZNK4pbrt9TransformclERKNS_7Bounds3IfEE(ptr dead_on_unwind writable sret(%"class.pbrt::Bounds3") align 4 %0, ptr noundef nonnull align 4 dereferenceable(128) %5, ptr noundef nonnull align 4 dereferenceable(24) %3)
  call void @llvm.lifetime.end.p0(i64 24, ptr nonnull %3) #31
  ret void
}